(dp1
S'failed'
p2
(lp3
S'1'
aS'4'
aS'2'
asS'source_names'
p4
(lp5
S'.'
asS'ids'
p6
(dp7
I1
(S'/Users/sergey_krupeninepam.com/Exercism/python/robot-name/robot_name_test.py'
S'robot_name_test'
p8
S'RobotNameTest.test_different_robots_have_different_names'
tp9
sI2
(S'/Users/sergey_krupeninepam.com/Exercism/python/robot-name/robot_name_test.py'
g8
S'RobotNameTest.test_has_name'
tp10
sI3
(S'/Users/sergey_krupeninepam.com/Exercism/python/robot-name/robot_name_test.py'
g8
S'RobotNameTest.test_name_sticks'
tp11
sI4
(S'/Users/sergey_krupeninepam.com/Exercism/python/robot-name/robot_name_test.py'
g8
S'RobotNameTest.test_reset_name'
tp12
ss.